target datalayout = "e-m:e-p270:32:32-p271:32:32-p272:64:64-i64:64-i128:128-f80:128-n8:16:32:64-S128"
target triple = "x86_64-pc-linux-gnu"

%"class.std::initializer_list" = type { ptr, i64 }
%"class.std::optional" = type { %"struct.std::_Optional_base" }
%"struct.std::_Optional_base" = type { %"struct.std::_Optional_payload" }
%"struct.std::_Optional_payload" = type { %"struct.std::_Optional_payload_base.base", [7 x i8] }
%"struct.std::_Optional_payload_base.base" = type <{ %"union.std::_Optional_payload_base<const Luau::Type *>::_Storage", i8 }>
%"union.std::_Optional_payload_base<const Luau::Type *>::_Storage" = type { ptr }
%"class.std::initializer_list.18" = type { ptr, i64 }
%"class.std::initializer_list.19" = type { ptr, i64 }

; Function Attrs: mustprogress nounwind uwtable
define linkonce_odr dso_local void @_ZNSt16initializer_listINSt7__cxx1112basic_stringIcSt11char_traitsIcESaIcEEEEC2Ev(ptr noundef nonnull align 8 dereferenceable(16) %0) unnamed_addr #2 comdat align 2 {
  %2 = alloca ptr, align 8
  store ptr %0, ptr %2, align 8, !tbaa !81
  %3 = load ptr, ptr %2, align 8
  %4 = getelementptr inbounds nuw %"class.std::initializer_list.19", ptr %3, i32 0, i32 0
  store ptr null, ptr %4, align 8, !tbaa !122
  %5 = getelementptr inbounds nuw %"class.std::initializer_list.19", ptr %3, i32 0, i32 1
  store i64 0, ptr %5, align 8, !tbaa !124
  ret void
}

; Function Attrs: mustprogress nounwind uwtable
define linkonce_odr dso_local void @_ZNSt16initializer_listIPKN4Luau11TypePackVarEEC2Ev(ptr noundef nonnull align 8 dereferenceable(16) %0) unnamed_addr #2 comdat align 2 {
  %2 = alloca ptr, align 8
  store ptr %0, ptr %2, align 8, !tbaa !117
  %3 = load ptr, ptr %2, align 8
  %4 = getelementptr inbounds nuw %"class.std::initializer_list.18", ptr %3, i32 0, i32 0
  store ptr null, ptr %4, align 8, !tbaa !119
  %5 = getelementptr inbounds nuw %"class.std::initializer_list.18", ptr %3, i32 0, i32 1
  store i64 0, ptr %5, align 8, !tbaa !121
  ret void
}

; Function Attrs: mustprogress nounwind uwtable
define linkonce_odr dso_local void @_ZNSt16initializer_listIPKN4Luau4TypeEEC2Ev(ptr noundef nonnull align 8 dereferenceable(16) %0) unnamed_addr #2 comdat align 2 {
  %2 = alloca ptr, align 8
  store ptr %0, ptr %2, align 8, !tbaa !75
  %3 = load ptr, ptr %2, align 8
  %4 = getelementptr inbounds nuw %"class.std::initializer_list", ptr %3, i32 0, i32 0
  store ptr null, ptr %4, align 8, !tbaa !54
  %5 = getelementptr inbounds nuw %"class.std::initializer_list", ptr %3, i32 0, i32 1
  store i64 0, ptr %5, align 8, !tbaa !59
  ret void
}

; Function Attrs: mustprogress uwtable
define dso_local noundef ptr @_ZN4Luau12makeFunctionERNS_9TypeArenaESt8optionalIPKNS_4TypeEESt16initializer_listIS5_ES8_b(ptr noundef nonnull align 8 dereferenceable(88) %0, ptr %1, i8 %2, ptr %3, i64 %4, ptr noundef byval(%"class.std::initializer_list") align 8 %5, i1 noundef zeroext %6) #6 {
  %8 = alloca %"class.std::optional", align 8
  %9 = alloca %"class.std::initializer_list", align 8
  %10 = alloca ptr, align 8
  %11 = alloca i8, align 1
  %12 = alloca %"class.std::optional", align 8
  %13 = alloca %"class.std::initializer_list", align 8
  %14 = alloca %"class.std::initializer_list.18", align 8
  %15 = alloca %"class.std::initializer_list", align 8
  %16 = alloca %"class.std::initializer_list.19", align 8
  %17 = alloca %"class.std::initializer_list", align 8
  %18 = getelementptr inbounds nuw { ptr, i8 }, ptr %8, i32 0, i32 0
  store ptr %1, ptr %18, align 8
  %19 = getelementptr inbounds nuw { ptr, i8 }, ptr %8, i32 0, i32 1
  store i8 %2, ptr %19, align 8
  %20 = getelementptr inbounds nuw { ptr, i64 }, ptr %9, i32 0, i32 0
  store ptr %3, ptr %20, align 8
  %21 = getelementptr inbounds nuw { ptr, i64 }, ptr %9, i32 0, i32 1
  store i64 %4, ptr %21, align 8
  store ptr %0, ptr %10, align 8, !tbaa !35
  %22 = zext i1 %6 to i8
  store i8 %22, ptr %11, align 1, !tbaa !26
  %23 = load ptr, ptr %10, align 8, !tbaa !35
  call void @llvm.memcpy.p0.p0.i64(ptr align 8 %12, ptr align 8 %8, i64 16, i1 false)
  call void @_ZNSt16initializer_listIPKN4Luau4TypeEEC2Ev(ptr noundef nonnull align 8 dereferenceable(16) %13) #4
  call void @_ZNSt16initializer_listIPKN4Luau11TypePackVarEEC2Ev(ptr noundef nonnull align 8 dereferenceable(16) %14) #4
  call void @llvm.memcpy.p0.p0.i64(ptr align 8 %15, ptr align 8 %9, i64 16, i1 false), !tbaa.struct !72
  call void @_ZNSt16initializer_listINSt7__cxx1112basic_stringIcSt11char_traitsIcESaIcEEEEC2Ev(ptr noundef nonnull align 8 dereferenceable(16) %16) #4
  call void @llvm.memcpy.p0.p0.i64(ptr align 8 %17, ptr align 8 %5, i64 16, i1 false), !tbaa.struct !72
  %24 = load i8, ptr %11, align 1, !tbaa !26, !range !28, !noundef !29
  %25 = trunc i8 %24 to i1
  %26 = getelementptr inbounds nuw { ptr, i8 }, ptr %12, i32 0, i32 0
  %27 = load ptr, ptr %26, align 8
  %28 = getelementptr inbounds nuw { ptr, i8 }, ptr %12, i32 0, i32 1
  %29 = load i8, ptr %28, align 8
  %30 = getelementptr inbounds nuw { ptr, i64 }, ptr %13, i32 0, i32 0
  %31 = load ptr, ptr %30, align 8
  %32 = getelementptr inbounds nuw { ptr, i64 }, ptr %13, i32 0, i32 1
  %33 = load i64, ptr %32, align 8
  %34 = call noundef ptr @_ZN4Luau12makeFunctionERNS_9TypeArenaESt8optionalIPKNS_4TypeEESt16initializer_listIS5_ES7_IPKNS_11TypePackVarEES8_S7_INSt7__cxx1112basic_stringIcSt11char_traitsIcESaIcEEEES8_b(ptr noundef nonnull align 8 dereferenceable(88) %23, ptr %27, i8 %29, ptr %31, i64 %33, ptr noundef byval(%"class.std::initializer_list.18") align 8 %14, ptr noundef byval(%"class.std::initializer_list") align 8 %15, ptr noundef byval(%"class.std::initializer_list.19") align 8 %16, ptr noundef byval(%"class.std::initializer_list") align 8 %17, i1 noundef zeroext %25)
  ret ptr %34
}