; Function Attrs: mustprogress uwtable
define dso_local noundef ptr @_ZN4Luau12makeFunctionERNS_9TypeArenaESt8optionalIPKNS_4TypeEESt16initializer_listIS5_ES8_b(ptr noundef nonnull align 8 dereferenceable(88) %0, ptr %1, i8 %2, ptr %3, i64 %4, ptr noundef readonly byval(%"class.std::initializer_list") align 8 captures(none) %5, i1 noundef zeroext %6) local_unnamed_addr #4 {
  %8 = alloca %"class.std::initializer_list.18", align 8
  %9 = alloca %"class.std::initializer_list", align 8
  %10 = alloca %"class.std::initializer_list.19", align 8
  call void @llvm.memset.p0.i64(ptr noundef nonnull align 8 dereferenceable(16) %8, i8 0, i64 16, i1 false)
  store ptr %3, ptr %9, align 8, !tbaa !57
  %.sroa.22.0..sroa_idx = getelementptr inbounds nuw i8, ptr %9, i64 8
  store i64 %4, ptr %.sroa.22.0..sroa_idx, align 8, !tbaa !58
  call void @llvm.memset.p0.i64(ptr noundef nonnull align 8 dereferenceable(16) %10, i8 0, i64 16, i1 false)
  %11 = tail call noundef ptr @_ZN4Luau12makeFunctionERNS_9TypeArenaESt8optionalIPKNS_4TypeEESt16initializer_listIS5_ES7_IPKNS_11TypePackVarEES8_S7_INSt7__cxx1112basic_stringIcSt11char_traitsIcESaIcEEEES8_b(ptr noundef nonnull align 8 dereferenceable(88) %0, ptr %1, i8 %2, ptr null, i64 0, ptr noundef nonnull byval(%"class.std::initializer_list.18") align 8 %8, ptr noundef nonnull byval(%"class.std::initializer_list") align 8 %9, ptr noundef nonnull byval(%"class.std::initializer_list.19") align 8 %10, ptr noundef nonnull byval(%"class.std::initializer_list") align 8 %5, i1 noundef zeroext %6)
  ret ptr %11
}